; Function Attrs: mustprogress uwtable
define internal void @_ZZN7rocksdb18WriteUnpreparedTxn27FlushWriteBatchToDBInternalEbEN19UntrackedKeyHandler7MergeCFEjRKNS_5SliceES4_(ptr dead_on_unwind noalias writable writeonly sret(%"class.rocksdb::Status") align 8 captures(none) %0, ptr noundef nonnull readonly align 8 captures(none) dereferenceable(17) %1, i32 noundef %2, ptr noundef nonnull align 8 dereferenceable(16) %3, ptr nonnull readnone align 8 captures(none) %4) unnamed_addr #4 align 2 personality ptr @__gxx_personality_v0 {
  %6 = getelementptr inbounds nuw i8, ptr %1, i64 16
  %7 = load i8, ptr %6, align 8, !tbaa !378, !range !37, !noundef !38
  %8 = trunc nuw i8 %7 to i1
  br i1 %8, label %9, label %10

9:                                                ; preds = %5
  tail call fastcc void @_ZZN7rocksdb18WriteUnpreparedTxn27FlushWriteBatchToDBInternalEbEN19UntrackedKeyHandler15AddUntrackedKeyEjRKNS_5SliceE(ptr dead_on_unwind noalias writable align 8 %0, ptr noundef nonnull align 8 dereferenceable(17) %1, i32 noundef %2, ptr noundef nonnull align 8 dereferenceable(16) %3)
  br label %12

10:                                               ; preds = %5
  %11 = getelementptr inbounds nuw i8, ptr %0, i64 8
  store ptr null, ptr %11, align 8, !tbaa !306, !alias.scope !628
  tail call void @llvm.memset.p0.i64(ptr noundef nonnull align 8 dereferenceable(16) %0, i8 0, i64 6, i1 false), !alias.scope !628
  br label %12

12:                                               ; preds = %10, %9
  ret void
}